; Function Attrs: nofree null_pointer_is_valid sspstrong uwtable
define internal void @decode_press_meas_min_value(ptr noundef %0, i16 noundef signext %1) #1 {
  %3 = icmp eq i16 %1, 32767
  br i1 %3, label %4, label %6

4:                                                ; preds = %2
  %5 = tail call i32 (ptr, i64, i32, i64, ptr, ...) @__snprintf_chk(ptr noundef %0, i64 noundef 240, i32 noundef 2, i64 noundef -1, ptr noundef nonnull @.str.104)
  br label %10

6:                                                ; preds = %2
  %7 = sdiv i16 %1, 10
  %.sext = sext i16 %7 to i32
  %8 = srem i16 %1, 10
  %.sext7 = sext i16 %8 to i32
  %9 = tail call i32 (ptr, i64, i32, i64, ptr, ...) @__snprintf_chk(ptr noundef %0, i64 noundef 240, i32 noundef 2, i64 noundef -1, ptr noundef nonnull @.str.120, i32 noundef %.sext, i32 noundef %.sext7)
  br label %10

10:                                               ; preds = %6, %4
  ret void
}